target datalayout = "e-m:e-p270:32:32-p271:32:32-p272:64:64-i64:64-i128:128-f80:128-n8:16:32:64-S128"
target triple = "x86_64-unknown-linux-gnu"

%"class.icu_75::TimeZoneGenericNameMatchInfo" = type { ptr }
%"struct.icu_75::GMatchInfo" = type { ptr, i32, i32 }
%"struct.icu_75::GNameInfo" = type { i32, ptr }
%"class.icu_75::ConstChar16Ptr" = type { ptr }

; Function Attrs: mustprogress nounwind uwtable
define linkonce_odr void @_ZN6icu_7514ConstChar16PtrD2Ev(ptr noundef nonnull align 8 dereferenceable(8) %this) unnamed_addr #0 comdat align 2 {
entry:
  %this.addr = alloca ptr, align 8
  store ptr %this, ptr %this.addr, align 8
  %this1 = load ptr, ptr %this.addr, align 8
  %p_ = getelementptr inbounds %"class.icu_75::ConstChar16Ptr", ptr %this1, i32 0, i32 0
  %0 = load ptr, ptr %p_, align 8
  call void asm sideeffect "", "rm,~{memory},~{dirflag},~{fpsr},~{flags}"(ptr %0) #9, !srcloc !4
  ret void
}

; Function Attrs: mustprogress nounwind uwtable
define linkonce_odr void @_ZN6icu_7514ConstChar16PtrC2EPKDs(ptr noundef nonnull align 8 dereferenceable(8) %this, ptr noundef %p) unnamed_addr #0 comdat align 2 {
entry:
  %this.addr = alloca ptr, align 8
  %p.addr = alloca ptr, align 8
  store ptr %this, ptr %this.addr, align 8
  store ptr %p, ptr %p.addr, align 8
  %this1 = load ptr, ptr %this.addr, align 8
  %p_ = getelementptr inbounds %"class.icu_75::ConstChar16Ptr", ptr %this1, i32 0, i32 0
  %0 = load ptr, ptr %p.addr, align 8
  store ptr %0, ptr %p_, align 8
  ret void
}

; Function Attrs: mustprogress uwtable
define noundef nonnull align 8 dereferenceable(64) ptr @_ZNK6icu_7528TimeZoneGenericNameMatchInfo13getTimeZoneIDEiRNS_13UnicodeStringE(ptr noundef nonnull align 8 dereferenceable(8) %this, i32 noundef %index, ptr noundef nonnull align 8 dereferenceable(64) %tzID) #1 align 2 personality ptr @__gxx_personality_v0 {
entry:
  %this.addr = alloca ptr, align 8
  %index.addr = alloca i32, align 4
  %tzID.addr = alloca ptr, align 8
  %minfo = alloca ptr, align 8
  %agg.tmp = alloca %"class.icu_75::ConstChar16Ptr", align 8
  %exn.slot = alloca ptr, align 8
  %ehselector.slot = alloca i32, align 4
  store ptr %this, ptr %this.addr, align 8
  store i32 %index, ptr %index.addr, align 4
  store ptr %tzID, ptr %tzID.addr, align 8
  %this1 = load ptr, ptr %this.addr, align 8
  %fMatches = getelementptr inbounds %"class.icu_75::TimeZoneGenericNameMatchInfo", ptr %this1, i32 0, i32 0
  %0 = load ptr, ptr %fMatches, align 8
  %1 = load i32, ptr %index.addr, align 4
  %call = call noundef ptr @_ZNK6icu_757UVector9elementAtEi(ptr noundef nonnull align 8 dereferenceable(40) %0, i32 noundef %1)
  store ptr %call, ptr %minfo, align 8
  %2 = load ptr, ptr %minfo, align 8
  %cmp = icmp ne ptr %2, null
  br i1 %cmp, label %land.lhs.true, label %if.else

land.lhs.true:                                    ; preds = %entry
  %3 = load ptr, ptr %minfo, align 8
  %gnameInfo = getelementptr inbounds %"struct.icu_75::GMatchInfo", ptr %3, i32 0, i32 0
  %4 = load ptr, ptr %gnameInfo, align 8
  %tzID2 = getelementptr inbounds %"struct.icu_75::GNameInfo", ptr %4, i32 0, i32 1
  %5 = load ptr, ptr %tzID2, align 8
  %cmp3 = icmp ne ptr %5, null
  br i1 %cmp3, label %if.then, label %if.else

if.then:                                          ; preds = %land.lhs.true
  %6 = load ptr, ptr %tzID.addr, align 8
  %7 = load ptr, ptr %minfo, align 8
  %gnameInfo4 = getelementptr inbounds %"struct.icu_75::GMatchInfo", ptr %7, i32 0, i32 0
  %8 = load ptr, ptr %gnameInfo4, align 8
  %tzID5 = getelementptr inbounds %"struct.icu_75::GNameInfo", ptr %8, i32 0, i32 1
  %9 = load ptr, ptr %tzID5, align 8
  call void @_ZN6icu_7514ConstChar16PtrC2EPKDs(ptr noundef nonnull align 8 dereferenceable(8) %agg.tmp, ptr noundef %9)
  %call6 = invoke noundef nonnull align 8 dereferenceable(64) ptr @_ZN6icu_7513UnicodeString5setToEaNS_14ConstChar16PtrEi(ptr noundef nonnull align 8 dereferenceable(64) %6, i8 noundef signext 1, ptr noundef %agg.tmp, i32 noundef -1)
          to label %invoke.cont unwind label %lpad

invoke.cont:                                      ; preds = %if.then
  call void @_ZN6icu_7514ConstChar16PtrD2Ev(ptr noundef nonnull align 8 dereferenceable(8) %agg.tmp) #9
  br label %if.end

lpad:                                             ; preds = %if.then
  %10 = landingpad { ptr, i32 }
          cleanup
  %11 = extractvalue { ptr, i32 } %10, 0
  store ptr %11, ptr %exn.slot, align 8
  %12 = extractvalue { ptr, i32 } %10, 1
  store i32 %12, ptr %ehselector.slot, align 4
  call void @_ZN6icu_7514ConstChar16PtrD2Ev(ptr noundef nonnull align 8 dereferenceable(8) %agg.tmp) #9
  br label %eh.resume

if.else:                                          ; preds = %land.lhs.true, %entry
  %13 = load ptr, ptr %tzID.addr, align 8
  call void @_ZN6icu_7513UnicodeString10setToBogusEv(ptr noundef nonnull align 8 dereferenceable(64) %13)
  br label %if.end

if.end:                                           ; preds = %if.else, %invoke.cont
  %14 = load ptr, ptr %tzID.addr, align 8
  ret ptr %14

eh.resume:                                        ; preds = %lpad
  %exn = load ptr, ptr %exn.slot, align 8
  %sel = load i32, ptr %ehselector.slot, align 4
  %lpad.val = insertvalue { ptr, i32 } poison, ptr %exn, 0
  %lpad.val7 = insertvalue { ptr, i32 } %lpad.val, i32 %sel, 1
  resume { ptr, i32 } %lpad.val7
}