; Function Attrs: mustprogress uwtable
define noundef nonnull align 8 dereferenceable(64) ptr @_ZNK6icu_7528TimeZoneGenericNameMatchInfo13getTimeZoneIDEiRNS_13UnicodeStringE(ptr nocapture noundef nonnull readonly align 8 dereferenceable(8) %this, i32 noundef %index, ptr noundef nonnull returned align 8 dereferenceable(64) %tzID) local_unnamed_addr #1 align 2 personality ptr @__gxx_personality_v0 {
entry:
  %agg.tmp = alloca %"class.icu_75::ConstChar16Ptr", align 8
  %0 = load ptr, ptr %this, align 8
  %call = tail call noundef ptr @_ZNK6icu_757UVector9elementAtEi(ptr noundef nonnull align 8 dereferenceable(40) %0, i32 noundef %index)
  %cmp.not = icmp eq ptr %call, null
  br i1 %cmp.not, label %if.else, label %land.lhs.true

land.lhs.true:                                    ; preds = %entry
  %1 = load ptr, ptr %call, align 8
  %tzID2 = getelementptr inbounds i8, ptr %1, i64 8
  %2 = load ptr, ptr %tzID2, align 8
  %cmp3.not = icmp eq ptr %2, null
  br i1 %cmp3.not, label %if.else, label %if.then

if.then:                                          ; preds = %land.lhs.true
  store ptr %2, ptr %agg.tmp, align 8
  %call6 = invoke noundef nonnull align 8 dereferenceable(64) ptr @_ZN6icu_7513UnicodeString5setToEaNS_14ConstChar16PtrEi(ptr noundef nonnull align 8 dereferenceable(64) %tzID, i8 noundef signext 1, ptr noundef nonnull %agg.tmp, i32 noundef -1)
          to label %invoke.cont unwind label %lpad

invoke.cont:                                      ; preds = %if.then
  %3 = load ptr, ptr %agg.tmp, align 8
  call void asm sideeffect "", "rm,~{memory},~{dirflag},~{fpsr},~{flags}"(ptr %3) #17, !srcloc !4
  br label %if.end

lpad:                                             ; preds = %if.then
  %4 = landingpad { ptr, i32 }
          cleanup
  %5 = load ptr, ptr %agg.tmp, align 8
  call void asm sideeffect "", "rm,~{memory},~{dirflag},~{fpsr},~{flags}"(ptr %5) #17, !srcloc !4
  resume { ptr, i32 } %4

if.else:                                          ; preds = %land.lhs.true, %entry
  tail call void @_ZN6icu_7513UnicodeString10setToBogusEv(ptr noundef nonnull align 8 dereferenceable(64) %tzID)
  br label %if.end

if.end:                                           ; preds = %if.else, %invoke.cont
  ret ptr %tzID
}